target datalayout = "e-m:e-p270:32:32-p271:32:32-p272:64:64-i64:64-i128:128-f80:128-n8:16:32:64-S128"
target triple = "x86_64-pc-linux-gnu"

%struct.Abc_Ntk_t_ = type { i32, i32, ptr, ptr, ptr, ptr, ptr, ptr, ptr, ptr, ptr, ptr, ptr, [11 x i32], i32, i32, i32, i32, ptr, i32, ptr, ptr, i32, i32, i32, double, i32, %struct.Vec_Int_t_, ptr, ptr, ptr, ptr, ptr, float, i32, ptr, ptr, ptr, ptr, ptr, ptr, ptr, ptr, ptr, ptr, ptr, ptr, ptr, ptr, ptr, ptr, ptr, ptr, ptr, ptr, ptr, ptr }
%struct.Vec_Int_t_ = type { i32, i32, ptr }

@.str.13 = private unnamed_addr constant [75 x i8] c"Computing equivalences for networks \22%s\22 and \22%s\22 with conflict limit %d.\0A\00", align 1

; Function Attrs: inlinehint nounwind uwtable
define internal void @Vec_IntFree(ptr noundef %0) #1 {
  %2 = alloca ptr, align 8
  store ptr %0, ptr %2, align 8, !tbaa !17
  %3 = load ptr, ptr %2, align 8, !tbaa !17
  %4 = getelementptr inbounds nuw %struct.Vec_Int_t_, ptr %3, i32 0, i32 2
  %5 = load ptr, ptr %4, align 8, !tbaa !50
  %6 = icmp ne ptr %5, null
  br i1 %6, label %7, label %13

7:                                                ; preds = %1
  %8 = load ptr, ptr %2, align 8, !tbaa !17
  %9 = getelementptr inbounds nuw %struct.Vec_Int_t_, ptr %8, i32 0, i32 2
  %10 = load ptr, ptr %9, align 8, !tbaa !50
  call void @free(ptr noundef %10) #10
  %11 = load ptr, ptr %2, align 8, !tbaa !17
  %12 = getelementptr inbounds nuw %struct.Vec_Int_t_, ptr %11, i32 0, i32 2
  store ptr null, ptr %12, align 8, !tbaa !50
  br label %14

13:                                               ; preds = %1
  br label %14

14:                                               ; preds = %13, %7
  %15 = load ptr, ptr %2, align 8, !tbaa !17
  %16 = icmp ne ptr %15, null
  br i1 %16, label %17, label %19

17:                                               ; preds = %14
  %18 = load ptr, ptr %2, align 8, !tbaa !17
  call void @free(ptr noundef %18) #10
  store ptr null, ptr %2, align 8, !tbaa !17
  br label %20

19:                                               ; preds = %14
  br label %20

20:                                               ; preds = %19, %17
  ret void
}

; Function Attrs: inlinehint nounwind uwtable
define internal ptr @Abc_NtkName(ptr noundef %0) #1 {
  %2 = alloca ptr, align 8
  store ptr %0, ptr %2, align 8, !tbaa !15
  %3 = load ptr, ptr %2, align 8, !tbaa !15
  %4 = getelementptr inbounds nuw %struct.Abc_Ntk_t_, ptr %3, i32 0, i32 2
  %5 = load ptr, ptr %4, align 8, !tbaa !90
  ret ptr %5
}

; Function Attrs: nounwind uwtable
define void @Abc_NtkDumpEquiv(ptr noundef %0, ptr noundef %1, i32 noundef %2, i32 noundef %3, i32 noundef %4) #0 {
  %6 = alloca ptr, align 8
  %7 = alloca ptr, align 8
  %8 = alloca i32, align 4
  %9 = alloca i32, align 4
  %10 = alloca i32, align 4
  %11 = alloca ptr, align 8
  %12 = alloca ptr, align 8
  %13 = alloca ptr, align 8
  store ptr %0, ptr %6, align 8, !tbaa !94
  store ptr %1, ptr %7, align 8, !tbaa !89
  store i32 %2, ptr %8, align 4, !tbaa !36
  store i32 %3, ptr %9, align 4, !tbaa !36
  store i32 %4, ptr %10, align 4, !tbaa !36
  call void @llvm.lifetime.start.p0(i64 8, ptr %11) #10
  call void @llvm.lifetime.start.p0(i64 8, ptr %12) #10
  call void @llvm.lifetime.start.p0(i64 8, ptr %13) #10
  %14 = load ptr, ptr %6, align 8, !tbaa !94
  %15 = getelementptr inbounds ptr, ptr %14, i64 0
  %16 = load ptr, ptr %15, align 8, !tbaa !15
  %17 = load ptr, ptr %6, align 8, !tbaa !94
  %18 = getelementptr inbounds ptr, ptr %17, i64 1
  %19 = load ptr, ptr %18, align 8, !tbaa !15
  %20 = load i32, ptr %9, align 4, !tbaa !36
  %21 = call ptr @Abc_NtkAigToGiaTwo(ptr noundef %16, ptr noundef %19, i32 noundef %20)
  store ptr %21, ptr %13, align 8, !tbaa !3
  %22 = load i32, ptr %10, align 4, !tbaa !36
  %23 = icmp ne i32 %22, 0
  br i1 %23, label %24, label %35

24:                                               ; preds = %5
  %25 = load ptr, ptr %6, align 8, !tbaa !94
  %26 = getelementptr inbounds ptr, ptr %25, i64 0
  %27 = load ptr, ptr %26, align 8, !tbaa !15
  %28 = call ptr @Abc_NtkName(ptr noundef %27)
  %29 = load ptr, ptr %6, align 8, !tbaa !94
  %30 = getelementptr inbounds ptr, ptr %29, i64 1
  %31 = load ptr, ptr %30, align 8, !tbaa !15
  %32 = call ptr @Abc_NtkName(ptr noundef %31)
  %33 = load i32, ptr %8, align 4, !tbaa !36
  %34 = call i32 (ptr, ...) @printf(ptr noundef @.str.13, ptr noundef %28, ptr noundef %32, i32 noundef %33)
  br label %35

35:                                               ; preds = %24, %5
  %36 = load ptr, ptr %13, align 8, !tbaa !3
  %37 = load i32, ptr %8, align 4, !tbaa !36
  %38 = load i32, ptr %10, align 4, !tbaa !36
  %39 = call ptr @Gia_ManComputeGiaEquivs(ptr noundef %36, i32 noundef %37, i32 noundef %38)
  store ptr %39, ptr %11, align 8, !tbaa !3
  %40 = load ptr, ptr %11, align 8, !tbaa !3
  call void @Gia_ManStop(ptr noundef %40)
  %41 = load i32, ptr %10, align 4, !tbaa !36
  %42 = icmp ne i32 %41, 0
  br i1 %42, label %43, label %45

43:                                               ; preds = %35
  %44 = load ptr, ptr %13, align 8, !tbaa !3
  call void @Gia_ManPrintStats(ptr noundef %44, ptr noundef null)
  br label %45

45:                                               ; preds = %43, %35
  %46 = load ptr, ptr %6, align 8, !tbaa !94
  %47 = load ptr, ptr %13, align 8, !tbaa !3
  %48 = call ptr @Abc_NtkCollectEquivClasses(ptr noundef %46, ptr noundef %47)
  store ptr %48, ptr %12, align 8, !tbaa !17
  %49 = load ptr, ptr %13, align 8, !tbaa !3
  call void @Gia_ManStop(ptr noundef %49)
  %50 = load ptr, ptr %7, align 8, !tbaa !89
  %51 = load ptr, ptr %12, align 8, !tbaa !17
  %52 = load ptr, ptr %6, align 8, !tbaa !94
  call void @Abc_NtkDumpEquivFile(ptr noundef %50, ptr noundef %51, ptr noundef %52)
  %53 = load ptr, ptr %12, align 8, !tbaa !17
  call void @Vec_IntFree(ptr noundef %53)
  call void @llvm.lifetime.end.p0(i64 8, ptr %13) #10
  call void @llvm.lifetime.end.p0(i64 8, ptr %12) #10
  call void @llvm.lifetime.end.p0(i64 8, ptr %11) #10
  ret void
}