; Function Attrs: nounwind uwtable
define void @Abc_NtkDumpEquiv(ptr noundef readonly captures(none) %0, ptr noundef %1, i32 noundef %2, i32 noundef %3, i32 noundef %4) local_unnamed_addr #0 {
  %6 = load ptr, ptr %0, align 8, !tbaa !84
  %7 = getelementptr inbounds nuw i8, ptr %0, i64 8
  %8 = load ptr, ptr %7, align 8, !tbaa !84
  %9 = tail call ptr @Abc_NtkAigToGiaTwo(ptr noundef %6, ptr noundef %8, i32 noundef %3)
  %.not = icmp eq i32 %4, 0
  br i1 %.not, label %.critedge, label %10

10:                                               ; preds = %5
  %11 = load ptr, ptr %0, align 8, !tbaa !84
  %12 = getelementptr i8, ptr %11, i64 8
  %.val19 = load ptr, ptr %12, align 8, !tbaa !75
  %13 = load ptr, ptr %7, align 8, !tbaa !84
  %14 = getelementptr i8, ptr %13, i64 8
  %.val = load ptr, ptr %14, align 8, !tbaa !75
  %15 = tail call i32 (ptr, ...) @printf(ptr noundef nonnull dereferenceable(1) @.str.13, ptr noundef %.val19, ptr noundef %.val, i32 noundef %2)
  %16 = tail call ptr @Gia_ManComputeGiaEquivs(ptr noundef %9, i32 noundef %2, i32 noundef %4) #15
  tail call void @Gia_ManStop(ptr noundef %16) #15
  tail call void @Gia_ManPrintStats(ptr noundef %9, ptr noundef null) #15
  br label %18

.critedge:                                        ; preds = %5
  %17 = tail call ptr @Gia_ManComputeGiaEquivs(ptr noundef %9, i32 noundef %2, i32 noundef 0) #15
  tail call void @Gia_ManStop(ptr noundef %17) #15
  br label %18

18:                                               ; preds = %.critedge, %10
  %19 = tail call ptr @Abc_NtkCollectEquivClasses(ptr noundef nonnull %0, ptr noundef %9)
  tail call void @Gia_ManStop(ptr noundef %9) #15
  tail call void @Abc_NtkDumpEquivFile(ptr noundef %1, ptr noundef %19, ptr noundef nonnull %0)
  %20 = getelementptr inbounds nuw i8, ptr %19, i64 8
  %21 = load ptr, ptr %20, align 8, !tbaa !38
  %.not.i = icmp eq ptr %21, null
  br i1 %.not.i, label %Vec_IntFree.exit, label %22

22:                                               ; preds = %18
  tail call void @free(ptr noundef nonnull %21) #15
  br label %Vec_IntFree.exit

Vec_IntFree.exit:                                 ; preds = %18, %22
  tail call void @free(ptr noundef nonnull %19) #15
  ret void
}